; Function Attrs: mustprogress nounwind uwtable
define void @_ZN4toku16locktree_manager23add_escalator_wait_timeEm(ptr noundef nonnull align 8 dereferenceable(392) %0, i64 noundef %1) local_unnamed_addr #2 align 2 {
  %3 = getelementptr inbounds nuw i8, ptr %0, i64 176
  %4 = tail call i32 @pthread_mutex_lock(ptr noundef nonnull %3) #14
  %5 = getelementptr inbounds nuw i8, ptr %0, i64 248
  %6 = load i64, ptr %5, align 8, !tbaa !65
  %7 = add i64 %6, 1
  store i64 %7, ptr %5, align 8, !tbaa !65
  %8 = getelementptr inbounds nuw i8, ptr %0, i64 256
  %9 = load i64, ptr %8, align 8, !tbaa !66
  %10 = add i64 %9, %1
  store i64 %10, ptr %8, align 8, !tbaa !66
  %11 = icmp ugt i64 %1, 999999
  br i1 %11, label %12, label %19

12:                                               ; preds = %2
  %13 = getelementptr inbounds nuw i8, ptr %0, i64 264
  %14 = load i64, ptr %13, align 8, !tbaa !67
  %15 = add i64 %14, 1
  store i64 %15, ptr %13, align 8, !tbaa !67
  %16 = getelementptr inbounds nuw i8, ptr %0, i64 272
  %17 = load i64, ptr %16, align 8, !tbaa !68
  %18 = add i64 %17, %1
  store i64 %18, ptr %16, align 8, !tbaa !68
  br label %19

19:                                               ; preds = %12, %2
  %20 = tail call i32 @pthread_mutex_unlock(ptr noundef nonnull %3) #14
  ret void
}